target datalayout = "e-m:e-p270:32:32-p271:32:32-p272:64:64-i64:64-i128:128-f80:128-n8:16:32:64-S128"
target triple = "x86_64-pc-linux-gnu"

%struct.Vec_Ptr_t_ = type { i32, i32, ptr }

@.str.30 = private unnamed_addr constant [3 x i8] c"rb\00", align 1
@.str.31 = private unnamed_addr constant [54 x i8] c"File containing list of files \22%s\22 cannot be opened.\0A\00", align 1
@.str.34 = private unnamed_addr constant [33 x i8] c"Cannot read AIG from file \22%s\22.\0A\00", align 1

; Function Attrs: inlinehint nounwind uwtable
define internal void @Vec_PtrGrow(ptr noundef %0, i32 noundef %1) #3 {
  %3 = alloca ptr, align 8
  %4 = alloca i32, align 4
  store ptr %0, ptr %3, align 8, !tbaa !17
  store i32 %1, ptr %4, align 4, !tbaa !19
  %5 = load ptr, ptr %3, align 8, !tbaa !17
  %6 = getelementptr inbounds nuw %struct.Vec_Ptr_t_, ptr %5, i32 0, i32 0
  %7 = load i32, ptr %6, align 8, !tbaa !44
  %8 = load i32, ptr %4, align 4, !tbaa !19
  %9 = icmp sge i32 %7, %8
  br i1 %9, label %10, label %11

10:                                               ; preds = %2
  br label %36

11:                                               ; preds = %2
  %12 = load ptr, ptr %3, align 8, !tbaa !17
  %13 = getelementptr inbounds nuw %struct.Vec_Ptr_t_, ptr %12, i32 0, i32 2
  %14 = load ptr, ptr %13, align 8, !tbaa !26
  %15 = icmp ne ptr %14, null
  br i1 %15, label %16, label %24

16:                                               ; preds = %11
  %17 = load ptr, ptr %3, align 8, !tbaa !17
  %18 = getelementptr inbounds nuw %struct.Vec_Ptr_t_, ptr %17, i32 0, i32 2
  %19 = load ptr, ptr %18, align 8, !tbaa !26
  %20 = load i32, ptr %4, align 4, !tbaa !19
  %21 = sext i32 %20 to i64
  %22 = mul i64 8, %21
  %23 = call ptr @realloc(ptr noundef %19, i64 noundef %22) #19
  br label %29

24:                                               ; preds = %11
  %25 = load i32, ptr %4, align 4, !tbaa !19
  %26 = sext i32 %25 to i64
  %27 = mul i64 8, %26
  %28 = call noalias ptr @malloc(i64 noundef %27) #16
  br label %29

29:                                               ; preds = %24, %16
  %30 = phi ptr [ %23, %16 ], [ %28, %24 ]
  %31 = load ptr, ptr %3, align 8, !tbaa !17
  %32 = getelementptr inbounds nuw %struct.Vec_Ptr_t_, ptr %31, i32 0, i32 2
  store ptr %30, ptr %32, align 8, !tbaa !26
  %33 = load i32, ptr %4, align 4, !tbaa !19
  %34 = load ptr, ptr %3, align 8, !tbaa !17
  %35 = getelementptr inbounds nuw %struct.Vec_Ptr_t_, ptr %34, i32 0, i32 0
  store i32 %33, ptr %35, align 8, !tbaa !44
  br label %36

36:                                               ; preds = %29, %10
  ret void
}

; Function Attrs: inlinehint nounwind uwtable
define internal void @Vec_PtrPush(ptr noundef %0, ptr noundef %1) #3 {
  %3 = alloca ptr, align 8
  %4 = alloca ptr, align 8
  store ptr %0, ptr %3, align 8, !tbaa !17
  store ptr %1, ptr %4, align 8, !tbaa !27
  %5 = load ptr, ptr %3, align 8, !tbaa !17
  %6 = getelementptr inbounds nuw %struct.Vec_Ptr_t_, ptr %5, i32 0, i32 1
  %7 = load i32, ptr %6, align 4, !tbaa !24
  %8 = load ptr, ptr %3, align 8, !tbaa !17
  %9 = getelementptr inbounds nuw %struct.Vec_Ptr_t_, ptr %8, i32 0, i32 0
  %10 = load i32, ptr %9, align 8, !tbaa !44
  %11 = icmp eq i32 %7, %10
  br i1 %11, label %12, label %26

12:                                               ; preds = %2
  %13 = load ptr, ptr %3, align 8, !tbaa !17
  %14 = getelementptr inbounds nuw %struct.Vec_Ptr_t_, ptr %13, i32 0, i32 0
  %15 = load i32, ptr %14, align 8, !tbaa !44
  %16 = icmp slt i32 %15, 16
  br i1 %16, label %17, label %19

17:                                               ; preds = %12
  %18 = load ptr, ptr %3, align 8, !tbaa !17
  call void @Vec_PtrGrow(ptr noundef %18, i32 noundef 16)
  br label %25

19:                                               ; preds = %12
  %20 = load ptr, ptr %3, align 8, !tbaa !17
  %21 = load ptr, ptr %3, align 8, !tbaa !17
  %22 = getelementptr inbounds nuw %struct.Vec_Ptr_t_, ptr %21, i32 0, i32 0
  %23 = load i32, ptr %22, align 8, !tbaa !44
  %24 = mul nsw i32 2, %23
  call void @Vec_PtrGrow(ptr noundef %20, i32 noundef %24)
  br label %25

25:                                               ; preds = %19, %17
  br label %26

26:                                               ; preds = %25, %2
  %27 = load ptr, ptr %4, align 8, !tbaa !27
  %28 = load ptr, ptr %3, align 8, !tbaa !17
  %29 = getelementptr inbounds nuw %struct.Vec_Ptr_t_, ptr %28, i32 0, i32 2
  %30 = load ptr, ptr %29, align 8, !tbaa !26
  %31 = load ptr, ptr %3, align 8, !tbaa !17
  %32 = getelementptr inbounds nuw %struct.Vec_Ptr_t_, ptr %31, i32 0, i32 1
  %33 = load i32, ptr %32, align 4, !tbaa !24
  %34 = add nsw i32 %33, 1
  store i32 %34, ptr %32, align 4, !tbaa !24
  %35 = sext i32 %33 to i64
  %36 = getelementptr inbounds ptr, ptr %30, i64 %35
  store ptr %27, ptr %36, align 8, !tbaa !27
  ret void
}

; Function Attrs: inlinehint nounwind uwtable
define internal i32 @Cmf_IsSpace(i8 noundef signext %0) #3 {
  %2 = alloca i8, align 1
  store i8 %0, ptr %2, align 1, !tbaa !80
  %3 = load i8, ptr %2, align 1, !tbaa !80
  %4 = sext i8 %3 to i32
  %5 = icmp eq i32 %4, 32
  br i1 %5, label %18, label %6

6:                                                ; preds = %1
  %7 = load i8, ptr %2, align 1, !tbaa !80
  %8 = sext i8 %7 to i32
  %9 = icmp eq i32 %8, 9
  br i1 %9, label %18, label %10

10:                                               ; preds = %6
  %11 = load i8, ptr %2, align 1, !tbaa !80
  %12 = sext i8 %11 to i32
  %13 = icmp eq i32 %12, 10
  br i1 %13, label %18, label %14

14:                                               ; preds = %10
  %15 = load i8, ptr %2, align 1, !tbaa !80
  %16 = sext i8 %15 to i32
  %17 = icmp eq i32 %16, 13
  br label %18

18:                                               ; preds = %14, %10, %6, %1
  %19 = phi i1 [ true, %10 ], [ true, %6 ], [ true, %1 ], [ %17, %14 ]
  %20 = zext i1 %19 to i32
  ret i32 %20
}

; Function Attrs: inlinehint nounwind uwtable
define internal ptr @Vec_PtrAlloc(i32 noundef %0) #3 {
  %2 = alloca i32, align 4
  %3 = alloca ptr, align 8
  store i32 %0, ptr %2, align 4, !tbaa !19
  call void @llvm.lifetime.start.p0(i64 8, ptr %3) #14
  %4 = call noalias ptr @malloc(i64 noundef 16) #16
  store ptr %4, ptr %3, align 8, !tbaa !17
  %5 = load i32, ptr %2, align 4, !tbaa !19
  %6 = icmp sgt i32 %5, 0
  br i1 %6, label %7, label %11

7:                                                ; preds = %1
  %8 = load i32, ptr %2, align 4, !tbaa !19
  %9 = icmp slt i32 %8, 8
  br i1 %9, label %10, label %11

10:                                               ; preds = %7
  store i32 8, ptr %2, align 4, !tbaa !19
  br label %11

11:                                               ; preds = %10, %7, %1
  %12 = load ptr, ptr %3, align 8, !tbaa !17
  %13 = getelementptr inbounds nuw %struct.Vec_Ptr_t_, ptr %12, i32 0, i32 1
  store i32 0, ptr %13, align 4, !tbaa !24
  %14 = load i32, ptr %2, align 4, !tbaa !19
  %15 = load ptr, ptr %3, align 8, !tbaa !17
  %16 = getelementptr inbounds nuw %struct.Vec_Ptr_t_, ptr %15, i32 0, i32 0
  store i32 %14, ptr %16, align 8, !tbaa !44
  %17 = load ptr, ptr %3, align 8, !tbaa !17
  %18 = getelementptr inbounds nuw %struct.Vec_Ptr_t_, ptr %17, i32 0, i32 0
  %19 = load i32, ptr %18, align 8, !tbaa !44
  %20 = icmp ne i32 %19, 0
  br i1 %20, label %21, label %28

21:                                               ; preds = %11
  %22 = load ptr, ptr %3, align 8, !tbaa !17
  %23 = getelementptr inbounds nuw %struct.Vec_Ptr_t_, ptr %22, i32 0, i32 0
  %24 = load i32, ptr %23, align 8, !tbaa !44
  %25 = sext i32 %24 to i64
  %26 = mul i64 8, %25
  %27 = call noalias ptr @malloc(i64 noundef %26) #16
  br label %29

28:                                               ; preds = %11
  br label %29

29:                                               ; preds = %28, %21
  %30 = phi ptr [ %27, %21 ], [ null, %28 ]
  %31 = load ptr, ptr %3, align 8, !tbaa !17
  %32 = getelementptr inbounds nuw %struct.Vec_Ptr_t_, ptr %31, i32 0, i32 2
  store ptr %30, ptr %32, align 8, !tbaa !26
  %33 = load ptr, ptr %3, align 8, !tbaa !17
  call void @llvm.lifetime.end.p0(i64 8, ptr %3) #14
  ret ptr %33
}

; Function Attrs: nounwind uwtable
define ptr @Cmd_ReadFiles(ptr noundef %0) #0 {
  %2 = alloca ptr, align 8
  %3 = alloca ptr, align 8
  %4 = alloca ptr, align 8
  %5 = alloca ptr, align 8
  %6 = alloca [1000 x i8], align 16
  %7 = alloca ptr, align 8
  %8 = alloca i32, align 4
  store ptr %0, ptr %3, align 8, !tbaa !47
  call void @llvm.lifetime.start.p0(i64 8, ptr %4) #14
  call void @llvm.lifetime.start.p0(i64 8, ptr %5) #14
  call void @llvm.lifetime.start.p0(i64 1000, ptr %6) #14
  call void @llvm.lifetime.start.p0(i64 8, ptr %7) #14
  %9 = load ptr, ptr %3, align 8, !tbaa !47
  %10 = call noalias ptr @fopen(ptr noundef %9, ptr noundef @.str.30)
  store ptr %10, ptr %7, align 8, !tbaa !65
  %11 = load ptr, ptr %7, align 8, !tbaa !65
  %12 = icmp eq ptr %11, null
  br i1 %12, label %13, label %16

13:                                               ; preds = %1
  %14 = load ptr, ptr %3, align 8, !tbaa !47
  %15 = call i32 (ptr, ...) @printf(ptr noundef @.str.31, ptr noundef %14)
  store ptr null, ptr %2, align 8
  store i32 1, ptr %8, align 4
  br label %63

16:                                               ; preds = %1
  %17 = call ptr @Vec_PtrAlloc(i32 noundef 100)
  store ptr %17, ptr %5, align 8, !tbaa !17
  br label %18

18:                                               ; preds = %56, %53, %33, %16
  %19 = getelementptr inbounds [1000 x i8], ptr %6, i64 0, i64 0
  %20 = load ptr, ptr %7, align 8, !tbaa !65
  %21 = call ptr @fgets(ptr noundef %19, i32 noundef 1000, ptr noundef %20)
  %22 = icmp ne ptr %21, null
  br i1 %22, label %23, label %59

23:                                               ; preds = %18
  %24 = getelementptr inbounds [1000 x i8], ptr %6, i64 0, i64 0
  %25 = load i8, ptr %24, align 16, !tbaa !80
  %26 = call i32 @Cmf_IsSpace(i8 noundef signext %25)
  %27 = icmp ne i32 %26, 0
  br i1 %27, label %33, label %28

28:                                               ; preds = %23
  %29 = getelementptr inbounds [1000 x i8], ptr %6, i64 0, i64 0
  %30 = load i8, ptr %29, align 16, !tbaa !80
  %31 = sext i8 %30 to i32
  %32 = icmp eq i32 %31, 35
  br i1 %32, label %33, label %34

33:                                               ; preds = %28, %23
  br label %18, !llvm.loop !89

34:                                               ; preds = %28
  br label %35

35:                                               ; preds = %43, %34
  %36 = getelementptr inbounds [1000 x i8], ptr %6, i64 0, i64 0
  %37 = call i64 @strlen(ptr noundef %36) #17
  %38 = sub i64 %37, 1
  %39 = getelementptr inbounds nuw [1000 x i8], ptr %6, i64 0, i64 %38
  %40 = load i8, ptr %39, align 1, !tbaa !80
  %41 = call i32 @Cmf_IsSpace(i8 noundef signext %40)
  %42 = icmp ne i32 %41, 0
  br i1 %42, label %43, label %48

43:                                               ; preds = %35
  %44 = getelementptr inbounds [1000 x i8], ptr %6, i64 0, i64 0
  %45 = call i64 @strlen(ptr noundef %44) #17
  %46 = sub i64 %45, 1
  %47 = getelementptr inbounds nuw [1000 x i8], ptr %6, i64 0, i64 %46
  store i8 0, ptr %47, align 1, !tbaa !80
  br label %35, !llvm.loop !90

48:                                               ; preds = %35
  %49 = getelementptr inbounds [1000 x i8], ptr %6, i64 0, i64 0
  %50 = call ptr @Gia_AigerRead(ptr noundef %49, i32 noundef 0, i32 noundef 0, i32 noundef 0)
  store ptr %50, ptr %4, align 8, !tbaa !20
  %51 = load ptr, ptr %4, align 8, !tbaa !20
  %52 = icmp eq ptr %51, null
  br i1 %52, label %53, label %56

53:                                               ; preds = %48
  %54 = getelementptr inbounds [1000 x i8], ptr %6, i64 0, i64 0
  %55 = call i32 (ptr, ...) @printf(ptr noundef @.str.34, ptr noundef %54)
  br label %18, !llvm.loop !89

56:                                               ; preds = %48
  %57 = load ptr, ptr %5, align 8, !tbaa !17
  %58 = load ptr, ptr %4, align 8, !tbaa !20
  call void @Vec_PtrPush(ptr noundef %57, ptr noundef %58)
  br label %18, !llvm.loop !89

59:                                               ; preds = %18
  %60 = load ptr, ptr %7, align 8, !tbaa !65
  %61 = call i32 @fclose(ptr noundef %60)
  %62 = load ptr, ptr %5, align 8, !tbaa !17
  store ptr %62, ptr %2, align 8
  store i32 1, ptr %8, align 4
  br label %63

63:                                               ; preds = %59, %13
  call void @llvm.lifetime.end.p0(i64 8, ptr %7) #14
  call void @llvm.lifetime.end.p0(i64 1000, ptr %6) #14
  call void @llvm.lifetime.end.p0(i64 8, ptr %5) #14
  call void @llvm.lifetime.end.p0(i64 8, ptr %4) #14
  %64 = load ptr, ptr %2, align 8
  ret ptr %64
}