; Function Attrs: nounwind uwtable
define noalias noundef ptr @Cmd_ReadFiles(ptr noundef %0) local_unnamed_addr #2 {
  %2 = alloca [1000 x i8], align 16
  call void @llvm.lifetime.start.p0(i64 1000, ptr nonnull %2) #22
  %3 = tail call noalias ptr @fopen(ptr noundef %0, ptr noundef nonnull @.str.30)
  %4 = icmp eq ptr %3, null
  br i1 %4, label %5, label %7

5:                                                ; preds = %1
  %6 = tail call i32 (ptr, ...) @printf(ptr noundef nonnull dereferenceable(1) @.str.31, ptr noundef %0)
  br label %56

7:                                                ; preds = %1
  %8 = tail call noalias dereferenceable_or_null(16) ptr @malloc(i64 noundef 16) #24
  %9 = getelementptr inbounds nuw i8, ptr %8, i64 4
  store i32 0, ptr %9, align 4, !tbaa !14
  store i32 100, ptr %8, align 8, !tbaa !33
  %10 = tail call noalias dereferenceable_or_null(800) ptr @malloc(i64 noundef 800) #24
  %11 = getelementptr inbounds nuw i8, ptr %8, i64 8
  store ptr %10, ptr %11, align 8, !tbaa !17
  %12 = call ptr @fgets(ptr noundef nonnull %2, i32 noundef 1000, ptr noundef nonnull %3)
  %.not19 = icmp eq ptr %12, null
  br i1 %.not19, label %._crit_edge, label %.lr.ph

.lr.ph:                                           ; preds = %7, %.backedge
  %13 = phi i32 [ %25, %.backedge ], [ 100, %7 ]
  %14 = phi i32 [ %26, %.backedge ], [ 0, %7 ]
  %15 = load i8, ptr %2, align 16, !tbaa !72
  switch i8 %15, label %.preheader [
    i8 32, label %.backedge
    i8 10, label %.backedge
    i8 9, label %.backedge
    i8 13, label %.backedge
    i8 35, label %.backedge
  ]

.preheader:                                       ; preds = %.lr.ph, %Cmf_IsSpace.exit16.thread
  %16 = call i64 @strlen(ptr noundef nonnull dereferenceable(1) %2) #25
  %17 = add i64 %16, -1
  %18 = getelementptr inbounds nuw [1000 x i8], ptr %2, i64 0, i64 %17
  %19 = load i8, ptr %18, align 1, !tbaa !72
  switch i8 %19, label %20 [
    i8 32, label %Cmf_IsSpace.exit16.thread
    i8 10, label %Cmf_IsSpace.exit16.thread
    i8 9, label %Cmf_IsSpace.exit16.thread
    i8 13, label %Cmf_IsSpace.exit16.thread
  ]

Cmf_IsSpace.exit16.thread:                        ; preds = %.preheader, %.preheader, %.preheader, %.preheader
  store i8 0, ptr %18, align 1, !tbaa !72
  br label %.preheader, !llvm.loop !79

20:                                               ; preds = %.preheader
  %21 = call ptr @Gia_AigerRead(ptr noundef nonnull %2, i32 noundef 0, i32 noundef 0, i32 noundef 0) #22
  %22 = icmp eq ptr %21, null
  br i1 %22, label %23, label %28

23:                                               ; preds = %20
  %24 = call i32 (ptr, ...) @printf(ptr noundef nonnull dereferenceable(1) @.str.34, ptr noundef nonnull %2)
  br label %.backedge

.backedge:                                        ; preds = %.lr.ph, %.lr.ph, %.lr.ph, %.lr.ph, %.lr.ph, %23, %Vec_PtrPush.exit
  %25 = phi i32 [ %13, %23 ], [ %50, %Vec_PtrPush.exit ], [ %13, %.lr.ph ], [ %13, %.lr.ph ], [ %13, %.lr.ph ], [ %13, %.lr.ph ], [ %13, %.lr.ph ]
  %26 = phi i32 [ %14, %23 ], [ %52, %Vec_PtrPush.exit ], [ %14, %.lr.ph ], [ %14, %.lr.ph ], [ %14, %.lr.ph ], [ %14, %.lr.ph ], [ %14, %.lr.ph ]
  %27 = call ptr @fgets(ptr noundef nonnull %2, i32 noundef 1000, ptr noundef nonnull %3)
  %.not = icmp eq ptr %27, null
  br i1 %.not, label %._crit_edge, label %.lr.ph, !llvm.loop !80

28:                                               ; preds = %20
  %29 = icmp eq i32 %14, %13
  br i1 %29, label %30, label %.Vec_PtrGrow.exit11_crit_edge.i

.Vec_PtrGrow.exit11_crit_edge.i:                  ; preds = %28
  %.pre.i = load ptr, ptr %11, align 8, !tbaa !17
  br label %Vec_PtrPush.exit

30:                                               ; preds = %28
  %31 = icmp slt i32 %13, 16
  br i1 %31, label %32, label %39

32:                                               ; preds = %30
  %33 = load ptr, ptr %11, align 8, !tbaa !17
  %.not9.i.i = icmp eq ptr %33, null
  br i1 %.not9.i.i, label %36, label %34

34:                                               ; preds = %32
  %35 = call dereferenceable_or_null(128) ptr @realloc(ptr noundef nonnull %33, i64 noundef 128) #26
  br label %Vec_PtrGrow.exit.i

36:                                               ; preds = %32
  %37 = call noalias dereferenceable_or_null(128) ptr @malloc(i64 noundef 128) #24
  br label %Vec_PtrGrow.exit.i

Vec_PtrGrow.exit.i:                               ; preds = %36, %34
  %38 = phi ptr [ %35, %34 ], [ %37, %36 ]
  store ptr %38, ptr %11, align 8, !tbaa !17
  store i32 16, ptr %8, align 8, !tbaa !33
  br label %Vec_PtrPush.exit

39:                                               ; preds = %30
  %40 = shl nuw nsw i32 %13, 1
  %41 = load ptr, ptr %11, align 8, !tbaa !17
  %.not9.i10.i = icmp eq ptr %41, null
  %42 = zext nneg i32 %40 to i64
  %43 = shl nuw nsw i64 %42, 3
  br i1 %.not9.i10.i, label %46, label %44

44:                                               ; preds = %39
  %45 = call ptr @realloc(ptr noundef nonnull %41, i64 noundef %43) #26
  br label %48

46:                                               ; preds = %39
  %47 = call noalias ptr @malloc(i64 noundef %43) #24
  br label %48

48:                                               ; preds = %46, %44
  %49 = phi ptr [ %45, %44 ], [ %47, %46 ]
  store ptr %49, ptr %11, align 8, !tbaa !17
  store i32 %40, ptr %8, align 8, !tbaa !33
  br label %Vec_PtrPush.exit

Vec_PtrPush.exit:                                 ; preds = %.Vec_PtrGrow.exit11_crit_edge.i, %Vec_PtrGrow.exit.i, %48
  %50 = phi i32 [ %13, %.Vec_PtrGrow.exit11_crit_edge.i ], [ %40, %48 ], [ 16, %Vec_PtrGrow.exit.i ]
  %51 = phi ptr [ %.pre.i, %.Vec_PtrGrow.exit11_crit_edge.i ], [ %49, %48 ], [ %38, %Vec_PtrGrow.exit.i ]
  %52 = add nsw i32 %14, 1
  store i32 %52, ptr %9, align 4, !tbaa !14
  %53 = sext i32 %14 to i64
  %54 = getelementptr inbounds ptr, ptr %51, i64 %53
  store ptr %21, ptr %54, align 8, !tbaa !18
  br label %.backedge

._crit_edge:                                      ; preds = %.backedge, %7
  %55 = call i32 @fclose(ptr noundef nonnull %3)
  br label %56

56:                                               ; preds = %._crit_edge, %5
  %.0 = phi ptr [ null, %5 ], [ %8, %._crit_edge ]
  call void @llvm.lifetime.end.p0(i64 1000, ptr nonnull %2) #22
  ret ptr %.0
}